; Function Attrs: mustprogress nounwind uwtable
define hidden void @_ZN11SymbolTable6verifyEv() local_unnamed_addr #0 align 2 {
  %1 = alloca %class.VerifySymbols, align 1
  %2 = tail call align 8 ptr @llvm.threadlocal.address.p0(ptr align 8 @_ZN6Thread12_thr_currentE)
  %3 = load ptr, ptr %2, align 8
  %4 = load ptr, ptr @_ZL12_local_table, align 8
  %5 = call noundef zeroext i1 @_ZN19ConcurrentHashTableI17SymbolTableConfigL8MEMFLAGS11EE8try_scanI13VerifySymbolsEEbP6ThreadRT_(ptr noundef nonnull align 8 dereferenceable(88) %4, ptr noundef %3, ptr noundef nonnull align 1 dereferenceable(1) %1)
  br i1 %5, label %9, label %6

6:                                                ; preds = %0
  %7 = load volatile ptr, ptr getelementptr inbounds (i8, ptr @_ZN16LogTagSetMappingILN6LogTag4typeE155ELS1_0ELS1_0ELS1_0ELS1_0ELS1_0EE7_tagsetE, i64 64), align 8
  %.not = icmp eq ptr %7, null
  br i1 %.not, label %9, label %8

8:                                                ; preds = %6
  call void (ptr, ...) @_ZN7LogImplILN6LogTag4typeE155ELS1_0ELS1_0ELS1_0ELS1_0ELS1_0EE5writeILN8LogLevel4typeE3EEEvPKcz(ptr noundef nonnull @.str.10)
  br label %9

9:                                                ; preds = %8, %6, %0
  ret void
}